target datalayout = "e-m:e-p270:32:32-p271:32:32-p272:64:64-i64:64-i128:128-f80:128-n8:16:32:64-S128"
target triple = "x86_64-pc-linux-gnu"

@hf_ocp1_params_blob = internal global i32 0, align 4
@hf_ocp1_params_blob_datasize = internal global i32 0, align 4
@hf_ocp1_params_blob_data = internal global i32 0, align 4
@ett_ocp1_params_blob = internal global i32 0, align 4
@.str.392 = private unnamed_addr constant [5 x i8] c"%s: \00", align 1

; Function Attrs: null_pointer_is_valid sspstrong uwtable
define internal i32 @decode_params_OcaBlob(ptr noundef %0, i32 noundef %1, ptr noundef %2, ptr noundef %3) #0 {
  %5 = alloca ptr, align 8
  %6 = alloca i32, align 4
  %7 = alloca ptr, align 8
  %8 = alloca ptr, align 8
  %9 = alloca ptr, align 8
  %10 = alloca ptr, align 8
  %11 = alloca i32, align 4
  %12 = alloca i16, align 2
  store ptr %0, ptr %5, align 8
  store i32 %1, ptr %6, align 4
  store ptr %2, ptr %7, align 8
  store ptr %3, ptr %8, align 8
  call void @llvm.lifetime.start.p0(i64 8, ptr %9) #9
  call void @llvm.lifetime.start.p0(i64 8, ptr %10) #9
  call void @llvm.lifetime.start.p0(i64 4, ptr %11) #9
  %13 = load i32, ptr %6, align 4
  store i32 %13, ptr %11, align 4
  call void @llvm.lifetime.start.p0(i64 2, ptr %12) #9
  %14 = load ptr, ptr %5, align 8
  %15 = load i32, ptr %6, align 4
  %16 = call zeroext i16 @tvb_get_uint16(ptr noundef %14, i32 noundef %15, i32 noundef 0)
  store i16 %16, ptr %12, align 2
  %17 = load ptr, ptr %7, align 8
  %18 = load i32, ptr @hf_ocp1_params_blob, align 4
  %19 = load ptr, ptr %5, align 8
  %20 = load i32, ptr %11, align 4
  %21 = load i16, ptr %12, align 2
  %22 = zext i16 %21 to i32
  %23 = add i32 2, %22
  %24 = call ptr @proto_tree_add_item(ptr noundef %17, i32 noundef %18, ptr noundef %19, i32 noundef %20, i32 noundef %23, i32 noundef 0)
  store ptr %24, ptr %10, align 8
  %25 = load ptr, ptr %10, align 8
  %26 = load ptr, ptr %8, align 8
  call void (ptr, ptr, ...) @proto_item_prepend_text(ptr noundef %25, ptr noundef @.str.392, ptr noundef %26)
  %27 = load ptr, ptr %10, align 8
  %28 = load i32, ptr @ett_ocp1_params_blob, align 4
  %29 = call ptr @proto_item_add_subtree(ptr noundef %27, i32 noundef %28)
  store ptr %29, ptr %9, align 8
  %30 = load ptr, ptr %9, align 8
  %31 = load i32, ptr @hf_ocp1_params_blob_datasize, align 4
  %32 = load ptr, ptr %5, align 8
  %33 = load i32, ptr %11, align 4
  %34 = call ptr @proto_tree_add_item(ptr noundef %30, i32 noundef %31, ptr noundef %32, i32 noundef %33, i32 noundef 2, i32 noundef 0)
  %35 = load i32, ptr %11, align 4
  %36 = add i32 %35, 2
  store i32 %36, ptr %11, align 4
  %37 = load ptr, ptr %9, align 8
  %38 = load i32, ptr @hf_ocp1_params_blob_data, align 4
  %39 = load ptr, ptr %5, align 8
  %40 = load i32, ptr %11, align 4
  %41 = load i16, ptr %12, align 2
  %42 = zext i16 %41 to i32
  %43 = call ptr @proto_tree_add_item(ptr noundef %37, i32 noundef %38, ptr noundef %39, i32 noundef %40, i32 noundef %42, i32 noundef 0)
  %44 = load i16, ptr %12, align 2
  %45 = zext i16 %44 to i32
  %46 = load i32, ptr %11, align 4
  %47 = add i32 %46, %45
  store i32 %47, ptr %11, align 4
  %48 = load i32, ptr %11, align 4
  %49 = load i32, ptr %6, align 4
  %50 = sub i32 %48, %49
  call void @llvm.lifetime.end.p0(i64 2, ptr %12) #9
  call void @llvm.lifetime.end.p0(i64 4, ptr %11) #9
  call void @llvm.lifetime.end.p0(i64 8, ptr %10) #9
  call void @llvm.lifetime.end.p0(i64 8, ptr %9) #9
  ret i32 %50
}